target datalayout = "e-m:e-p270:32:32-p271:32:32-p272:64:64-i64:64-i128:128-f80:128-n8:16:32:64-S128"
target triple = "x86_64-pc-linux-gnu"

%struct.__va_list_tag = type { i32, i32, ptr, ptr }
%"struct.faiss::MatrixStats" = type { %"class.std::__cxx11::basic_string", i64, i64, i64, i64, i64, double, double, i64, %"class.std::vector", %"class.std::unordered_map", ptr, i64 }
%"class.std::__cxx11::basic_string" = type { %"struct.std::__cxx11::basic_string<char>::_Alloc_hider", i64, %union.anon }
%"struct.std::__cxx11::basic_string<char>::_Alloc_hider" = type { ptr }
%union.anon = type { i64, [8 x i8] }
%"class.std::vector" = type { %"struct.std::_Vector_base" }
%"struct.std::_Vector_base" = type { %"struct.std::_Vector_base<faiss::MatrixStats::PerDimStats, std::allocator<faiss::MatrixStats::PerDimStats>>::_Vector_impl" }
%"struct.std::_Vector_base<faiss::MatrixStats::PerDimStats, std::allocator<faiss::MatrixStats::PerDimStats>>::_Vector_impl" = type { %"struct.std::_Vector_base<faiss::MatrixStats::PerDimStats, std::allocator<faiss::MatrixStats::PerDimStats>>::_Vector_impl_data" }
%"struct.std::_Vector_base<faiss::MatrixStats::PerDimStats, std::allocator<faiss::MatrixStats::PerDimStats>>::_Vector_impl_data" = type { ptr, ptr, ptr }
%"class.std::unordered_map" = type { %"class.std::_Hashtable" }
%"class.std::_Hashtable" = type { ptr, i64, %"struct.std::__detail::_Hash_node_base", i64, %"struct.std::__detail::_Prime_rehash_policy", ptr }
%"struct.std::__detail::_Hash_node_base" = type { ptr }
%"struct.std::__detail::_Prime_rehash_policy" = type { float, i64 }

; Function Attrs: mustprogress nounwind uwtable
define void @_ZN5faiss11MatrixStats10do_commentEPKcz(ptr noundef nonnull align 8 dereferenceable(192) %0, ptr noundef %1, ...) #1 align 2 {
  %3 = alloca ptr, align 8
  %4 = alloca ptr, align 8
  %5 = alloca [1 x %struct.__va_list_tag], align 16
  %6 = alloca i64, align 8
  store ptr %0, ptr %3, align 8, !tbaa !28
  store ptr %1, ptr %4, align 8, !tbaa !30
  %7 = load ptr, ptr %3, align 8
  call void @llvm.lifetime.start.p0(i64 24, ptr %5) #18
  %8 = getelementptr inbounds [1 x %struct.__va_list_tag], ptr %5, i64 0, i64 0
  call void @llvm.va_start.p0(ptr %8)
  call void @llvm.lifetime.start.p0(i64 8, ptr %6) #18
  %9 = getelementptr inbounds nuw %"struct.faiss::MatrixStats", ptr %7, i32 0, i32 11
  %10 = load ptr, ptr %9, align 8, !tbaa !32
  %11 = getelementptr inbounds nuw %"struct.faiss::MatrixStats", ptr %7, i32 0, i32 12
  %12 = load i64, ptr %11, align 8, !tbaa !46
  %13 = load ptr, ptr %4, align 8, !tbaa !30
  %14 = getelementptr inbounds [1 x %struct.__va_list_tag], ptr %5, i64 0, i64 0
  %15 = call i32 @vsnprintf(ptr noundef %10, i64 noundef %12, ptr noundef %13, ptr noundef %14) #18
  %16 = sext i32 %15 to i64
  store i64 %16, ptr %6, align 8, !tbaa !47
  %17 = getelementptr inbounds [1 x %struct.__va_list_tag], ptr %5, i64 0, i64 0
  call void @llvm.va_end.p0(ptr %17)
  %18 = load i64, ptr %6, align 8, !tbaa !47
  %19 = getelementptr inbounds nuw %"struct.faiss::MatrixStats", ptr %7, i32 0, i32 12
  %20 = load i64, ptr %19, align 8, !tbaa !46
  %21 = sub i64 %20, %18
  store i64 %21, ptr %19, align 8, !tbaa !46
  %22 = load i64, ptr %6, align 8, !tbaa !47
  %23 = getelementptr inbounds nuw %"struct.faiss::MatrixStats", ptr %7, i32 0, i32 11
  %24 = load ptr, ptr %23, align 8, !tbaa !32
  %25 = getelementptr inbounds nuw i8, ptr %24, i64 %22
  store ptr %25, ptr %23, align 8, !tbaa !32
  call void @llvm.lifetime.end.p0(i64 8, ptr %6) #18
  call void @llvm.lifetime.end.p0(i64 24, ptr %5) #18
  ret void
}