; Function Attrs: mustprogress nofree nounwind uwtable
define void @_ZN5faiss11MatrixStats10do_commentEPKcz(ptr noundef nonnull align 8 captures(none) dereferenceable(192) %0, ptr noundef readonly captures(none) %1, ...) local_unnamed_addr #4 align 2 {
  %3 = alloca [1 x %struct.__va_list_tag], align 16
  call void @llvm.lifetime.start.p0(i64 24, ptr nonnull %3) #21
  call void @llvm.va_start.p0(ptr nonnull %3)
  %4 = getelementptr inbounds nuw i8, ptr %0, i64 176
  %5 = load ptr, ptr %4, align 8, !tbaa !21
  %6 = getelementptr inbounds nuw i8, ptr %0, i64 184
  %7 = load i64, ptr %6, align 8, !tbaa !38
  %8 = call i32 @vsnprintf(ptr noundef %5, i64 noundef %7, ptr noundef %1, ptr noundef nonnull %3) #21
  %9 = sext i32 %8 to i64
  call void @llvm.va_end.p0(ptr nonnull %3)
  %10 = load i64, ptr %6, align 8, !tbaa !38
  %11 = sub i64 %10, %9
  store i64 %11, ptr %6, align 8, !tbaa !38
  %12 = load ptr, ptr %4, align 8, !tbaa !21
  %13 = getelementptr inbounds nuw i8, ptr %12, i64 %9
  store ptr %13, ptr %4, align 8, !tbaa !21
  call void @llvm.lifetime.end.p0(i64 24, ptr nonnull %3) #21
  ret void
}